target datalayout = "e-m:e-p270:32:32-p271:32:32-p272:64:64-i64:64-i128:128-f80:128-n8:16:32:64-S128"
target triple = "x86_64-pc-linux-gnu"

%struct.Fraig_NodeStruct_t_ = type { i32, i32, i32, i32, i32, i32, i32, ptr, ptr, ptr, ptr, ptr, ptr, ptr, ptr, i32, i32, ptr, ptr, ptr, ptr, ptr, ptr, ptr }

; Function Attrs: nounwind uwtable
define i32 @Fraig_ManSimulateBitNode_rec(ptr noundef %0, ptr noundef %1) #0 {
  %3 = alloca i32, align 4
  %4 = alloca ptr, align 8
  %5 = alloca ptr, align 8
  %6 = alloca i32, align 4
  %7 = alloca i32, align 4
  store ptr %0, ptr %4, align 8
  store ptr %1, ptr %5, align 8
  %8 = load ptr, ptr %4, align 8
  %9 = load ptr, ptr %5, align 8
  %10 = call i32 @Fraig_NodeIsTravIdCurrent(ptr noundef %8, ptr noundef %9)
  %11 = icmp ne i32 %10, 0
  br i1 %11, label %12, label %18

12:                                               ; preds = %2
  %13 = load ptr, ptr %5, align 8
  %14 = getelementptr inbounds %struct.Fraig_NodeStruct_t_, ptr %13, i32 0, i32 6
  %15 = load i32, ptr %14, align 8
  %16 = lshr i32 %15, 6
  %17 = and i32 %16, 1
  store i32 %17, ptr %3, align 4
  br label %68

18:                                               ; preds = %2
  %19 = load ptr, ptr %4, align 8
  %20 = load ptr, ptr %5, align 8
  call void @Fraig_NodeSetTravIdCurrent(ptr noundef %19, ptr noundef %20)
  %21 = load ptr, ptr %4, align 8
  %22 = load ptr, ptr %5, align 8
  %23 = getelementptr inbounds %struct.Fraig_NodeStruct_t_, ptr %22, i32 0, i32 7
  %24 = load ptr, ptr %23, align 8
  %25 = ptrtoint ptr %24 to i64
  %26 = and i64 %25, -2
  %27 = inttoptr i64 %26 to ptr
  %28 = call i32 @Fraig_ManSimulateBitNode_rec(ptr noundef %21, ptr noundef %27)
  store i32 %28, ptr %6, align 4
  %29 = load ptr, ptr %4, align 8
  %30 = load ptr, ptr %5, align 8
  %31 = getelementptr inbounds %struct.Fraig_NodeStruct_t_, ptr %30, i32 0, i32 8
  %32 = load ptr, ptr %31, align 8
  %33 = ptrtoint ptr %32 to i64
  %34 = and i64 %33, -2
  %35 = inttoptr i64 %34 to ptr
  %36 = call i32 @Fraig_ManSimulateBitNode_rec(ptr noundef %29, ptr noundef %35)
  store i32 %36, ptr %7, align 4
  %37 = load ptr, ptr %5, align 8
  %38 = getelementptr inbounds %struct.Fraig_NodeStruct_t_, ptr %37, i32 0, i32 7
  %39 = load ptr, ptr %38, align 8
  %40 = ptrtoint ptr %39 to i64
  %41 = and i64 %40, 1
  %42 = trunc i64 %41 to i32
  %43 = load i32, ptr %6, align 4
  %44 = xor i32 %43, %42
  store i32 %44, ptr %6, align 4
  %45 = load ptr, ptr %5, align 8
  %46 = getelementptr inbounds %struct.Fraig_NodeStruct_t_, ptr %45, i32 0, i32 8
  %47 = load ptr, ptr %46, align 8
  %48 = ptrtoint ptr %47 to i64
  %49 = and i64 %48, 1
  %50 = trunc i64 %49 to i32
  %51 = load i32, ptr %7, align 4
  %52 = xor i32 %51, %50
  store i32 %52, ptr %7, align 4
  %53 = load i32, ptr %6, align 4
  %54 = load i32, ptr %7, align 4
  %55 = and i32 %53, %54
  %56 = load ptr, ptr %5, align 8
  %57 = getelementptr inbounds %struct.Fraig_NodeStruct_t_, ptr %56, i32 0, i32 6
  %58 = load i32, ptr %57, align 8
  %59 = and i32 %55, 1
  %60 = shl i32 %59, 6
  %61 = and i32 %58, -65
  %62 = or i32 %61, %60
  store i32 %62, ptr %57, align 8
  %63 = load ptr, ptr %5, align 8
  %64 = getelementptr inbounds %struct.Fraig_NodeStruct_t_, ptr %63, i32 0, i32 6
  %65 = load i32, ptr %64, align 8
  %66 = lshr i32 %65, 6
  %67 = and i32 %66, 1
  store i32 %67, ptr %3, align 4
  br label %68

68:                                               ; preds = %18, %12
  %69 = load i32, ptr %3, align 4
  ret i32 %69
}