; Function Attrs: nounwind uwtable
define range(i32 0, 2) i32 @Fraig_ManSimulateBitNode_rec(ptr noundef %0, ptr noundef %1) local_unnamed_addr #0 {
  %3 = tail call i32 @Fraig_NodeIsTravIdCurrent(ptr noundef %0, ptr noundef %1) #12
  %.not = icmp eq i32 %3, 0
  br i1 %.not, label %8, label %4

4:                                                ; preds = %2
  %5 = getelementptr inbounds nuw i8, ptr %1, i64 24
  %6 = load i32, ptr %5, align 8
  %7 = lshr i32 %6, 6
  br label %36

8:                                                ; preds = %2
  tail call void @Fraig_NodeSetTravIdCurrent(ptr noundef %0, ptr noundef %1) #12
  %9 = getelementptr inbounds nuw i8, ptr %1, i64 32
  %10 = load ptr, ptr %9, align 8
  %11 = ptrtoint ptr %10 to i64
  %12 = and i64 %11, -2
  %13 = inttoptr i64 %12 to ptr
  %14 = tail call i32 @Fraig_ManSimulateBitNode_rec(ptr noundef %0, ptr noundef %13)
  %15 = getelementptr inbounds nuw i8, ptr %1, i64 40
  %16 = load ptr, ptr %15, align 8
  %17 = ptrtoint ptr %16 to i64
  %18 = and i64 %17, -2
  %19 = inttoptr i64 %18 to ptr
  %20 = tail call i32 @Fraig_ManSimulateBitNode_rec(ptr noundef %0, ptr noundef %19)
  %21 = load ptr, ptr %9, align 8
  %22 = ptrtoint ptr %21 to i64
  %23 = trunc i64 %22 to i32
  %24 = xor i32 %14, %23
  %25 = load ptr, ptr %15, align 8
  %26 = ptrtoint ptr %25 to i64
  %27 = trunc i64 %26 to i32
  %28 = xor i32 %20, %27
  %29 = and i32 %28, %24
  %30 = getelementptr inbounds nuw i8, ptr %1, i64 24
  %31 = load i32, ptr %30, align 8
  %32 = shl i32 %29, 6
  %33 = and i32 %32, 64
  %34 = and i32 %31, -65
  %35 = or disjoint i32 %33, %34
  store i32 %35, ptr %30, align 8
  br label %36

36:                                               ; preds = %8, %4
  %.0.in = phi i32 [ %7, %4 ], [ %29, %8 ]
  %.0 = and i32 %.0.in, 1
  ret i32 %.0
}